target datalayout = "e-m:e-p270:32:32-p271:32:32-p272:64:64-i64:64-i128:128-f80:128-n8:16:32:64-S128"
target triple = "x86_64-pc-linux-gnu"

; Function Attrs: mustprogress uwtable
define dso_local noundef zeroext i1 @_ZN4i18n12phonenumbers18PhoneNumberMatcher13IsLatinLetterEi(i32 noundef %0) #4 align 2 {
  %2 = alloca i1, align 1
  %3 = alloca i32, align 4
  %4 = alloca i32, align 4
  store i32 %0, ptr %3, align 4
  %5 = load i32, ptr %3, align 4
  %6 = call signext i8 @u_isalpha_70(i32 noundef %5)
  %7 = icmp ne i8 %6, 0
  br i1 %7, label %14, label %8

8:                                                ; preds = %1
  %9 = load i32, ptr %3, align 4
  %10 = call signext i8 @u_charType_70(i32 noundef %9)
  %11 = sext i8 %10 to i32
  %12 = icmp ne i32 %11, 6
  br i1 %12, label %13, label %14

13:                                               ; preds = %8
  store i1 false, ptr %2, align 1
  br label %36

14:                                               ; preds = %8, %1
  %15 = load i32, ptr %3, align 4
  %16 = call i32 @ublock_getCode_70(i32 noundef %15)
  store i32 %16, ptr %4, align 4
  %17 = load i32, ptr %4, align 4
  %18 = icmp eq i32 %17, 1
  br i1 %18, label %34, label %19

19:                                               ; preds = %14
  %20 = load i32, ptr %4, align 4
  %21 = icmp eq i32 %20, 2
  br i1 %21, label %34, label %22

22:                                               ; preds = %19
  %23 = load i32, ptr %4, align 4
  %24 = icmp eq i32 %23, 3
  br i1 %24, label %34, label %25

25:                                               ; preds = %22
  %26 = load i32, ptr %4, align 4
  %27 = icmp eq i32 %26, 38
  br i1 %27, label %34, label %28

28:                                               ; preds = %25
  %29 = load i32, ptr %4, align 4
  %30 = icmp eq i32 %29, 4
  br i1 %30, label %34, label %31

31:                                               ; preds = %28
  %32 = load i32, ptr %4, align 4
  %33 = icmp eq i32 %32, 7
  br label %34

34:                                               ; preds = %31, %28, %25, %22, %19, %14
  %35 = phi i1 [ true, %28 ], [ true, %25 ], [ true, %22 ], [ true, %19 ], [ true, %14 ], [ %33, %31 ]
  store i1 %35, ptr %2, align 1
  br label %36

36:                                               ; preds = %34, %13
  %37 = load i1, ptr %2, align 1
  ret i1 %37
}