; Function Attrs: mustprogress uwtable
define dso_local noundef zeroext i1 @_ZN4i18n12phonenumbers18PhoneNumberMatcher13IsLatinLetterEi(i32 noundef %0) local_unnamed_addr #4 align 2 {
  %2 = tail call signext i8 @u_isalpha_70(i32 noundef %0)
  %.not = icmp eq i8 %2, 0
  br i1 %.not, label %3, label %5

3:                                                ; preds = %1
  %4 = tail call signext i8 @u_charType_70(i32 noundef %0)
  %.not17 = icmp eq i8 %4, 6
  br i1 %.not17, label %5, label %switch.edge

5:                                                ; preds = %3, %1
  %6 = tail call i32 @ublock_getCode_70(i32 noundef %0)
  %7 = icmp ult i32 %6, 39
  br i1 %7, label %switch.lookup, label %switch.edge

switch.lookup:                                    ; preds = %5
  %switch.cast = zext nneg i32 %6 to i39
  %switch.downshift = lshr i39 -274877906786, %switch.cast
  %8 = and i39 %switch.downshift, 1
  %switch.masked = icmp ne i39 %8, 0
  br label %switch.edge

switch.edge:                                      ; preds = %5, %switch.lookup, %3
  %.0 = phi i1 [ false, %3 ], [ %switch.masked, %switch.lookup ], [ false, %5 ]
  ret i1 %.0
}